target datalayout = "e-m:e-p270:32:32-p271:32:32-p272:64:64-i64:64-i128:128-f80:128-n8:16:32:64-S128"
target triple = "x86_64-pc-linux-gnu"

%"class.Gluco2::vec.0" = type { ptr, i32, i32 }
%"class.Gluco2::Solver" = type { ptr, i32, ptr, ptr, i32, i8, ptr, i64, %"class.Gluco2::vec", %"class.Gluco2::vec.0", i32, %"class.Gluco2::vec.1", %"class.Gluco2::vec.0", i32, i32, i32, double, double, double, double, i32, i32, i32, i32, i32, i32, double, double, double, double, i32, i32, i8, i8, double, ptr, i8, i64, i64, i64, i64, i64, i64, i64, i64, i64, i64, i64, i64, i64, i64, i64, i64, i64, i64, i64, i64, i64, i64, i32, i8, double, %"class.Gluco2::vec.2", double, %"class.Gluco2::OccLists", %"class.Gluco2::OccLists", %"class.Gluco2::vec.5", %"class.Gluco2::vec.5", %"class.Gluco2::vec.1", %"class.Gluco2::vec.4", %"class.Gluco2::vec.4", %"class.Gluco2::vec.0", %"class.Gluco2::vec", %"class.Gluco2::vec", %"class.Gluco2::vec.6", i32, i32, i64, %"class.Gluco2::vec.0", %"class.Gluco2::Heap", double, i8, %"class.Gluco2::vec.5", %"class.Gluco2::vec.0", %"class.Gluco2::ClauseAllocator", i32, %"class.Gluco2::bqueue", %"class.Gluco2::bqueue", float, i32, %"class.Gluco2::vec.4", %"class.Gluco2::vec.0", %"class.Gluco2::vec.0", %"class.Gluco2::vec.0", i32, double, double, i32, i64, i64, i8, i32, i32, double, double, i32, i32, %"class.Gluco2::vec", %"class.Gluco2::vec", i8, %"class.Gluco2::vec.7", %"class.Gluco2::vec.5", %"class.Gluco2::vec.0", %"class.Gluco2::vec.0", i32, i32, i32, i32, %"class.Gluco2::Heap2", %"class.Gluco2::vec", %"class.Gluco2::vec", i32, %"class.Gluco2::vec", %"class.Gluco2::vec.0" }
%"class.Gluco2::vec.2" = type { ptr, i32, i32 }
%"class.Gluco2::OccLists" = type { %"class.Gluco2::vec.3", %"class.Gluco2::vec.4", %"class.Gluco2::vec.0", %"struct.Gluco2::Solver::WatcherDeleted" }
%"class.Gluco2::vec.3" = type { ptr, i32, i32 }
%"struct.Gluco2::Solver::WatcherDeleted" = type { ptr }
%"class.Gluco2::vec.1" = type { ptr, i32, i32 }
%"class.Gluco2::vec.6" = type { ptr, i32, i32 }
%"class.Gluco2::Heap" = type { %"struct.Gluco2::Solver::VarOrderLt", %"class.Gluco2::vec", %"class.Gluco2::vec" }
%"struct.Gluco2::Solver::VarOrderLt" = type { ptr }
%"class.Gluco2::ClauseAllocator" = type { %"class.Gluco2::RegionAllocator.base", i8, [3 x i8] }
%"class.Gluco2::RegionAllocator.base" = type <{ ptr, i32, i32, i32 }>
%"class.Gluco2::bqueue" = type { %"class.Gluco2::vec.5", i32, i32, i64, i32, i32, i8, double, double }
%"class.Gluco2::vec.4" = type { ptr, i32, i32 }
%"class.Gluco2::vec.7" = type { ptr, i32, i32 }
%"class.Gluco2::vec.5" = type { ptr, i32, i32 }
%"class.Gluco2::Heap2" = type { %"struct.Gluco2::Solver::JustOrderLt2", %"class.Gluco2::vec.8", %"class.Gluco2::vec" }
%"struct.Gluco2::Solver::JustOrderLt2" = type { ptr }
%"class.Gluco2::vec.8" = type { ptr, i32, i32 }
%"class.Gluco2::vec" = type { ptr, i32, i32 }

; Function Attrs: mustprogress nounwind uwtable
define linkonce_odr noundef i32 @_ZNK6Gluco23vecINS_6Solver7VarDataEE4sizeEv(ptr noundef nonnull align 8 dereferenceable(16) %0) #0 comdat align 2 {
  %2 = alloca ptr, align 8
  store ptr %0, ptr %2, align 8, !tbaa !229
  %3 = load ptr, ptr %2, align 8
  %4 = getelementptr inbounds nuw %"class.Gluco2::vec.6", ptr %3, i32 0, i32 1
  %5 = load i32, ptr %4, align 8, !tbaa !231
  ret i32 %5
}

; Function Attrs: mustprogress nounwind uwtable
define noundef i32 @_Z22glucose2_solver_addvarPN6Gluco210SimpSolverE(ptr noundef %0) #0 {
  %2 = alloca ptr, align 8
  store ptr %0, ptr %2, align 8, !tbaa !3
  %3 = load ptr, ptr %2, align 8, !tbaa !3
  %4 = call noundef i32 @_ZN6Gluco210SimpSolver6newVarEbb(ptr noundef nonnull align 8 dereferenceable(1684) %3, i1 noundef zeroext true, i1 noundef zeroext true)
  %5 = load ptr, ptr %2, align 8, !tbaa !3
  %6 = call noundef i32 @_ZNK6Gluco26Solver5nVarsEv(ptr noundef nonnull align 8 dereferenceable(1416) %5)
  %7 = sub nsw i32 %6, 1
  ret i32 %7
}

; Function Attrs: inlinehint mustprogress nounwind uwtable
define linkonce_odr noundef i32 @_ZNK6Gluco26Solver5nVarsEv(ptr noundef nonnull align 8 dereferenceable(1416) %0) #4 comdat align 2 {
  %2 = alloca ptr, align 8
  store ptr %0, ptr %2, align 8, !tbaa !26
  %3 = load ptr, ptr %2, align 8
  %4 = getelementptr inbounds nuw %"class.Gluco2::Solver", ptr %3, i32 0, i32 74
  %5 = call noundef i32 @_ZNK6Gluco23vecINS_6Solver7VarDataEE4sizeEv(ptr noundef nonnull align 8 dereferenceable(16) %4)
  ret i32 %5
}

; Function Attrs: mustprogress nounwind uwtable
define i32 @bmcg2_sat_solver_addvar(ptr noundef %0) #0 {
  %2 = alloca ptr, align 8
  store ptr %0, ptr %2, align 8, !tbaa !30
  %3 = load ptr, ptr %2, align 8, !tbaa !30
  %4 = call noundef i32 @_Z22glucose2_solver_addvarPN6Gluco210SimpSolverE(ptr noundef %3)
  ret i32 %4
}

; Function Attrs: mustprogress nounwind uwtable
define i32 @bmcg2_sat_solver_varnum(ptr noundef %0) #0 {
  %2 = alloca ptr, align 8
  store ptr %0, ptr %2, align 8, !tbaa !30
  %3 = load ptr, ptr %2, align 8, !tbaa !30
  %4 = call noundef i32 @_ZNK6Gluco26Solver5nVarsEv(ptr noundef nonnull align 8 dereferenceable(1416) %3)
  ret i32 %4
}

; Function Attrs: mustprogress nounwind uwtable
define void @bmcg2_sat_solver_set_nvars(ptr noundef %0, i32 noundef %1) #0 {
  %3 = alloca ptr, align 8
  %4 = alloca i32, align 4
  %5 = alloca i32, align 4
  store ptr %0, ptr %3, align 8, !tbaa !30
  store i32 %1, ptr %4, align 4, !tbaa !12
  call void @llvm.lifetime.start.p0(i64 4, ptr %5) #15
  %6 = load ptr, ptr %3, align 8, !tbaa !30
  %7 = call i32 @bmcg2_sat_solver_varnum(ptr noundef %6)
  store i32 %7, ptr %5, align 4, !tbaa !12
  br label %8

8:                                                ; preds = %15, %2
  %9 = load i32, ptr %5, align 4, !tbaa !12
  %10 = load i32, ptr %4, align 4, !tbaa !12
  %11 = icmp slt i32 %9, %10
  br i1 %11, label %12, label %18

12:                                               ; preds = %8
  %13 = load ptr, ptr %3, align 8, !tbaa !30
  %14 = call i32 @bmcg2_sat_solver_addvar(ptr noundef %13)
  br label %15

15:                                               ; preds = %12
  %16 = load i32, ptr %5, align 4, !tbaa !12
  %17 = add nsw i32 %16, 1
  store i32 %17, ptr %5, align 4, !tbaa !12
  br label %8, !llvm.loop !84

18:                                               ; preds = %8
  call void @llvm.lifetime.end.p0(i64 4, ptr %5) #15
  ret void
}