; Function Attrs: mustprogress nounwind uwtable
define void @bmcg2_sat_solver_set_nvars(ptr noundef %0, i32 noundef %1) local_unnamed_addr #0 {
  %3 = getelementptr inbounds nuw i8, ptr %0, i64 736
  %4 = load i32, ptr %3, align 8, !tbaa !9
  %5 = icmp slt i32 %4, %1
  br i1 %5, label %.lr.ph, label %._crit_edge

.lr.ph:                                           ; preds = %2, %.lr.ph
  %.04 = phi i32 [ %7, %.lr.ph ], [ %4, %2 ]
  %6 = tail call noundef i32 @_ZN6Gluco210SimpSolver6newVarEbb(ptr noundef nonnull align 8 dereferenceable(1684) %0, i1 noundef zeroext true, i1 noundef zeroext true) #30
  %7 = add i32 %.04, 1
  %exitcond.not = icmp eq i32 %7, %1
  br i1 %exitcond.not, label %._crit_edge, label %.lr.ph, !llvm.loop !70

._crit_edge:                                      ; preds = %.lr.ph, %2
  ret void
}